target datalayout = "e-m:e-p270:32:32-p271:32:32-p272:64:64-i64:64-i128:128-f80:128-n8:16:32:64-S128"
target triple = "x86_64-pc-linux-gnu"

%struct.UCPTrie = type { ptr, %union.UCPTrieData, i32, i32, i32, i16, i8, i8, i32, i16, i16, i32, i32 }
%union.UCPTrieData = type { ptr }

; Function Attrs: mustprogress nounwind uwtable
define i32 @ucptrie_internalSmallIndex_77(ptr noundef %0, i32 noundef %1) #7 {
  %3 = alloca ptr, align 8
  %4 = alloca i32, align 4
  %5 = alloca i32, align 4
  %6 = alloca i32, align 4
  %7 = alloca i32, align 4
  %8 = alloca i32, align 4
  store ptr %0, ptr %3, align 8, !tbaa !38
  store i32 %1, ptr %4, align 4, !tbaa !11
  call void @llvm.lifetime.start.p0(i64 4, ptr %5) #9
  %9 = load i32, ptr %4, align 4, !tbaa !11
  %10 = ashr i32 %9, 14
  store i32 %10, ptr %5, align 4, !tbaa !11
  %11 = load ptr, ptr %3, align 8, !tbaa !38
  %12 = getelementptr inbounds nuw %struct.UCPTrie, ptr %11, i32 0, i32 6
  %13 = load i8, ptr %12, align 2, !tbaa !36
  %14 = sext i8 %13 to i32
  %15 = icmp eq i32 %14, 0
  br i1 %15, label %16, label %19

16:                                               ; preds = %2
  %17 = load i32, ptr %5, align 4, !tbaa !11
  %18 = add nsw i32 %17, 1020
  store i32 %18, ptr %5, align 4, !tbaa !11
  br label %22

19:                                               ; preds = %2
  %20 = load i32, ptr %5, align 4, !tbaa !11
  %21 = add nsw i32 %20, 64
  store i32 %21, ptr %5, align 4, !tbaa !11
  br label %22

22:                                               ; preds = %19, %16
  call void @llvm.lifetime.start.p0(i64 4, ptr %6) #9
  %23 = load ptr, ptr %3, align 8, !tbaa !38
  %24 = getelementptr inbounds nuw %struct.UCPTrie, ptr %23, i32 0, i32 0
  %25 = load ptr, ptr %24, align 8, !tbaa !41
  %26 = load ptr, ptr %3, align 8, !tbaa !38
  %27 = getelementptr inbounds nuw %struct.UCPTrie, ptr %26, i32 0, i32 0
  %28 = load ptr, ptr %27, align 8, !tbaa !41
  %29 = load i32, ptr %5, align 4, !tbaa !11
  %30 = sext i32 %29 to i64
  %31 = getelementptr inbounds i16, ptr %28, i64 %30
  %32 = load i16, ptr %31, align 2, !tbaa !43
  %33 = zext i16 %32 to i32
  %34 = load i32, ptr %4, align 4, !tbaa !11
  %35 = ashr i32 %34, 9
  %36 = and i32 %35, 31
  %37 = add nsw i32 %33, %36
  %38 = sext i32 %37 to i64
  %39 = getelementptr inbounds i16, ptr %25, i64 %38
  %40 = load i16, ptr %39, align 2, !tbaa !43
  %41 = zext i16 %40 to i32
  store i32 %41, ptr %6, align 4, !tbaa !11
  call void @llvm.lifetime.start.p0(i64 4, ptr %7) #9
  %42 = load i32, ptr %4, align 4, !tbaa !11
  %43 = ashr i32 %42, 4
  %44 = and i32 %43, 31
  store i32 %44, ptr %7, align 4, !tbaa !11
  call void @llvm.lifetime.start.p0(i64 4, ptr %8) #9
  %45 = load i32, ptr %6, align 4, !tbaa !11
  %46 = and i32 %45, 32768
  %47 = icmp eq i32 %46, 0
  br i1 %47, label %48, label %59

48:                                               ; preds = %22
  %49 = load ptr, ptr %3, align 8, !tbaa !38
  %50 = getelementptr inbounds nuw %struct.UCPTrie, ptr %49, i32 0, i32 0
  %51 = load ptr, ptr %50, align 8, !tbaa !41
  %52 = load i32, ptr %6, align 4, !tbaa !11
  %53 = load i32, ptr %7, align 4, !tbaa !11
  %54 = add nsw i32 %52, %53
  %55 = sext i32 %54 to i64
  %56 = getelementptr inbounds i16, ptr %51, i64 %55
  %57 = load i16, ptr %56, align 2, !tbaa !43
  %58 = zext i16 %57 to i32
  store i32 %58, ptr %8, align 4, !tbaa !11
  br label %96

59:                                               ; preds = %22
  %60 = load i32, ptr %6, align 4, !tbaa !11
  %61 = and i32 %60, 32767
  %62 = load i32, ptr %7, align 4, !tbaa !11
  %63 = and i32 %62, -8
  %64 = add nsw i32 %61, %63
  %65 = load i32, ptr %7, align 4, !tbaa !11
  %66 = ashr i32 %65, 3
  %67 = add nsw i32 %64, %66
  store i32 %67, ptr %6, align 4, !tbaa !11
  %68 = load i32, ptr %7, align 4, !tbaa !11
  %69 = and i32 %68, 7
  store i32 %69, ptr %7, align 4, !tbaa !11
  %70 = load ptr, ptr %3, align 8, !tbaa !38
  %71 = getelementptr inbounds nuw %struct.UCPTrie, ptr %70, i32 0, i32 0
  %72 = load ptr, ptr %71, align 8, !tbaa !41
  %73 = load i32, ptr %6, align 4, !tbaa !11
  %74 = add nsw i32 %73, 1
  store i32 %74, ptr %6, align 4, !tbaa !11
  %75 = sext i32 %73 to i64
  %76 = getelementptr inbounds i16, ptr %72, i64 %75
  %77 = load i16, ptr %76, align 2, !tbaa !43
  %78 = zext i16 %77 to i32
  %79 = load i32, ptr %7, align 4, !tbaa !11
  %80 = mul nsw i32 2, %79
  %81 = add nsw i32 2, %80
  %82 = shl i32 %78, %81
  %83 = and i32 %82, 196608
  store i32 %83, ptr %8, align 4, !tbaa !11
  %84 = load ptr, ptr %3, align 8, !tbaa !38
  %85 = getelementptr inbounds nuw %struct.UCPTrie, ptr %84, i32 0, i32 0
  %86 = load ptr, ptr %85, align 8, !tbaa !41
  %87 = load i32, ptr %6, align 4, !tbaa !11
  %88 = load i32, ptr %7, align 4, !tbaa !11
  %89 = add nsw i32 %87, %88
  %90 = sext i32 %89 to i64
  %91 = getelementptr inbounds i16, ptr %86, i64 %90
  %92 = load i16, ptr %91, align 2, !tbaa !43
  %93 = zext i16 %92 to i32
  %94 = load i32, ptr %8, align 4, !tbaa !11
  %95 = or i32 %94, %93
  store i32 %95, ptr %8, align 4, !tbaa !11
  br label %96

96:                                               ; preds = %59, %48
  %97 = load i32, ptr %8, align 4, !tbaa !11
  %98 = load i32, ptr %4, align 4, !tbaa !11
  %99 = and i32 %98, 15
  %100 = add nsw i32 %97, %99
  call void @llvm.lifetime.end.p0(i64 4, ptr %8) #9
  call void @llvm.lifetime.end.p0(i64 4, ptr %7) #9
  call void @llvm.lifetime.end.p0(i64 4, ptr %6) #9
  call void @llvm.lifetime.end.p0(i64 4, ptr %5) #9
  ret i32 %100
}

; Function Attrs: mustprogress nounwind uwtable
define i32 @ucptrie_internalSmallU8Index_77(ptr noundef %0, i32 noundef %1, i8 noundef zeroext %2, i8 noundef zeroext %3) #7 {
  %5 = alloca i32, align 4
  %6 = alloca ptr, align 8
  %7 = alloca i32, align 4
  %8 = alloca i8, align 1
  %9 = alloca i8, align 1
  %10 = alloca i32, align 4
  %11 = alloca i32, align 4
  store ptr %0, ptr %6, align 8, !tbaa !38
  store i32 %1, ptr %7, align 4, !tbaa !11
  store i8 %2, ptr %8, align 1, !tbaa !42
  store i8 %3, ptr %9, align 1, !tbaa !42
  call void @llvm.lifetime.start.p0(i64 4, ptr %10) #9
  %12 = load i32, ptr %7, align 4, !tbaa !11
  %13 = shl i32 %12, 12
  %14 = load i8, ptr %8, align 1, !tbaa !42
  %15 = zext i8 %14 to i32
  %16 = shl i32 %15, 6
  %17 = or i32 %13, %16
  %18 = load i8, ptr %9, align 1, !tbaa !42
  %19 = zext i8 %18 to i32
  %20 = or i32 %17, %19
  store i32 %20, ptr %10, align 4, !tbaa !11
  %21 = load i32, ptr %10, align 4, !tbaa !11
  %22 = load ptr, ptr %6, align 8, !tbaa !38
  %23 = getelementptr inbounds nuw %struct.UCPTrie, ptr %22, i32 0, i32 4
  %24 = load i32, ptr %23, align 8, !tbaa !34
  %25 = icmp sge i32 %21, %24
  br i1 %25, label %26, label %31

26:                                               ; preds = %4
  %27 = load ptr, ptr %6, align 8, !tbaa !38
  %28 = getelementptr inbounds nuw %struct.UCPTrie, ptr %27, i32 0, i32 3
  %29 = load i32, ptr %28, align 4, !tbaa !28
  %30 = sub nsw i32 %29, 2
  store i32 %30, ptr %5, align 4
  store i32 1, ptr %11, align 4
  br label %35

31:                                               ; preds = %4
  %32 = load ptr, ptr %6, align 8, !tbaa !38
  %33 = load i32, ptr %10, align 4, !tbaa !11
  %34 = call i32 @ucptrie_internalSmallIndex_77(ptr noundef %32, i32 noundef %33)
  store i32 %34, ptr %5, align 4
  store i32 1, ptr %11, align 4
  br label %35

35:                                               ; preds = %31, %26
  call void @llvm.lifetime.end.p0(i64 4, ptr %10) #9
  %36 = load i32, ptr %5, align 4
  ret i32 %36
}