; Function Attrs: mustprogress nofree norecurse nosync nounwind willreturn memory(read, inaccessiblemem: none) uwtable
define range(i32 -2147483648, 2147483646) i32 @ucptrie_internalSmallU8Index_77(ptr noundef readonly captures(none) %0, i32 noundef %1, i8 noundef zeroext %2, i8 noundef zeroext %3) local_unnamed_addr #7 {
  %5 = shl i32 %1, 12
  %6 = zext i8 %2 to i32
  %7 = shl nuw nsw i32 %6, 6
  %8 = zext i8 %3 to i32
  %9 = or i32 %7, %8
  %10 = or i32 %9, %5
  %11 = getelementptr inbounds nuw i8, ptr %0, i64 24
  %12 = load i32, ptr %11, align 8, !tbaa !27
  %.not = icmp slt i32 %10, %12
  br i1 %.not, label %17, label %13

13:                                               ; preds = %4
  %14 = getelementptr inbounds nuw i8, ptr %0, i64 20
  %15 = load i32, ptr %14, align 4, !tbaa !28
  %16 = add nsw i32 %15, -2
  br label %67

17:                                               ; preds = %4
  %18 = ashr i32 %5, 14
  %19 = getelementptr inbounds nuw i8, ptr %0, i64 30
  %20 = load i8, ptr %19, align 2, !tbaa !25
  %21 = icmp eq i8 %20, 0
  %.025.v.i = select i1 %21, i32 1020, i32 64
  %.025.i = add nsw i32 %.025.v.i, %18
  %22 = load ptr, ptr %0, align 8, !tbaa !17
  %23 = sext i32 %.025.i to i64
  %24 = getelementptr inbounds i16, ptr %22, i64 %23
  %25 = load i16, ptr %24, align 2, !tbaa !22
  %26 = zext i16 %25 to i32
  %27 = lshr i32 %10, 9
  %28 = and i32 %27, 31
  %29 = add nuw nsw i32 %28, %26
  %30 = zext nneg i32 %29 to i64
  %31 = getelementptr inbounds nuw i16, ptr %22, i64 %30
  %32 = load i16, ptr %31, align 2, !tbaa !22
  %33 = zext i16 %32 to i32
  %34 = lshr i32 %10, 4
  %35 = and i32 %34, 31
  %36 = icmp sgt i16 %32, -1
  br i1 %36, label %37, label %43

37:                                               ; preds = %17
  %38 = add nuw nsw i32 %35, %33
  %39 = zext nneg i32 %38 to i64
  %40 = getelementptr inbounds nuw i16, ptr %22, i64 %39
  %41 = load i16, ptr %40, align 2, !tbaa !22
  %42 = zext i16 %41 to i32
  br label %ucptrie_internalSmallIndex_77.exit

43:                                               ; preds = %17
  %44 = and i32 %33, 32767
  %45 = and i32 %34, 24
  %46 = lshr i32 %35, 3
  %47 = or disjoint i32 %46, %45
  %48 = add nuw nsw i32 %44, %47
  %49 = and i32 %34, 7
  %50 = zext nneg i32 %48 to i64
  %51 = getelementptr inbounds nuw i16, ptr %22, i64 %50
  %52 = load i16, ptr %51, align 2, !tbaa !22
  %53 = zext i16 %52 to i32
  %54 = shl nuw nsw i32 %49, 1
  %55 = add nuw nsw i32 %54, 2
  %56 = shl nuw i32 %53, %55
  %57 = and i32 %56, 196608
  %58 = add nuw nsw i32 %49, 1
  %59 = add nuw nsw i32 %58, %48
  %60 = zext nneg i32 %59 to i64
  %61 = getelementptr inbounds nuw i16, ptr %22, i64 %60
  %62 = load i16, ptr %61, align 2, !tbaa !22
  %63 = zext i16 %62 to i32
  %64 = or disjoint i32 %57, %63
  br label %ucptrie_internalSmallIndex_77.exit

ucptrie_internalSmallIndex_77.exit:               ; preds = %37, %43
  %.0.i = phi i32 [ %42, %37 ], [ %64, %43 ]
  %65 = and i32 %8, 15
  %66 = add nuw nsw i32 %.0.i, %65
  br label %67

67:                                               ; preds = %ucptrie_internalSmallIndex_77.exit, %13
  %.0 = phi i32 [ %16, %13 ], [ %66, %ucptrie_internalSmallIndex_77.exit ]
  ret i32 %.0
}